; Function Attrs: mustprogress uwtable
define hidden void @_ZN4cvc58internal13NodeConverter14preConvertTypeENS0_8TypeNodeE(ptr noalias nocapture writeonly sret(%"class.cvc5::internal::TypeNode") align 8 %agg.result, ptr nocapture nonnull readnone align 8 %this, ptr nocapture noundef readonly %tn) unnamed_addr #4 align 2 {
entry:
  %0 = load ptr, ptr %tn, align 8
  store ptr %0, ptr %agg.result, align 8
  %bf.load.i.i = load i64, ptr %0, align 8
  %bf.lshr.i.i = lshr i64 %bf.load.i.i, 40
  %1 = trunc i64 %bf.lshr.i.i to i32
  %bf.cast.i.i = and i32 %1, 1048575
  %cmp.i.i = icmp ult i32 %bf.cast.i.i, 1048574
  br i1 %cmp.i.i, label %if.then.i.i, label %if.else.i.i

if.then.i.i:                                      ; preds = %entry
  %bf.value.i.i = add i64 %bf.load.i.i, 1099511627776
  %bf.shl.i.i = and i64 %bf.value.i.i, 1152920405095219200
  %bf.clear7.i.i = and i64 %bf.load.i.i, -1152920405095219201
  %bf.set.i.i = or disjoint i64 %bf.shl.i.i, %bf.clear7.i.i
  store i64 %bf.set.i.i, ptr %0, align 8
  br label %_ZN4cvc58internal8TypeNodeC2ERKS1_.exit

if.else.i.i:                                      ; preds = %entry
  %cmp12.i.i = icmp eq i32 %bf.cast.i.i, 1048574
  br i1 %cmp12.i.i, label %if.then13.i.i, label %_ZN4cvc58internal8TypeNodeC2ERKS1_.exit

if.then13.i.i:                                    ; preds = %if.else.i.i
  %bf.set23.i.i = or i64 %bf.load.i.i, 1152920405095219200
  store i64 %bf.set23.i.i, ptr %0, align 8
  tail call void @_ZN4cvc58internal4expr9NodeValue20markRefCountMaxedOutEv(ptr noundef nonnull align 8 dereferenceable(16) %0)
  br label %_ZN4cvc58internal8TypeNodeC2ERKS1_.exit

_ZN4cvc58internal8TypeNodeC2ERKS1_.exit:          ; preds = %if.then.i.i, %if.else.i.i, %if.then13.i.i
  ret void
}